target datalayout = "e-m:e-p270:32:32-p271:32:32-p272:64:64-i64:64-i128:128-f80:128-n8:16:32:64-S128"
target triple = "x86_64-pc-linux-gnu"

; Function Attrs: nounwind uwtable
define internal void @kwsysProcessChildErrorExit(i32 noundef %0) #0 {
  %2 = alloca i32, align 4
  %3 = alloca [1024 x i8], align 16
  %4 = alloca i64, align 8
  store i32 %0, ptr %2, align 4, !tbaa !20
  call void @llvm.lifetime.start.p0(i64 1024, ptr %3) #11
  call void @llvm.lifetime.start.p0(i64 8, ptr %4) #11
  %5 = getelementptr inbounds [1024 x i8], ptr %3, i64 0, i64 0
  %6 = call ptr @__errno_location() #14
  %7 = load i32, ptr %6, align 4, !tbaa !20
  %8 = call ptr @strerror(i32 noundef %7) #11
  %9 = call ptr @strncpy(ptr noundef %5, ptr noundef %8, i64 noundef 1024) #11
  %10 = getelementptr inbounds [1024 x i8], ptr %3, i64 0, i64 1023
  store i8 0, ptr %10, align 1, !tbaa !86
  %11 = load i32, ptr %2, align 4, !tbaa !20
  %12 = getelementptr inbounds [1024 x i8], ptr %3, i64 0, i64 0
  %13 = getelementptr inbounds [1024 x i8], ptr %3, i64 0, i64 0
  %14 = call i64 @strlen(ptr noundef %13) #13
  %15 = call i64 @write(i32 noundef %11, ptr noundef %12, i64 noundef %14)
  store i64 %15, ptr %4, align 8, !tbaa !49
  call void @_exit(i32 noundef 1) #15
  unreachable
}