; Function Attrs: noreturn nounwind uwtable
define internal fastcc void @kwsysProcessChildErrorExit(i32 noundef %0) unnamed_addr #19 {
  %2 = alloca [1024 x i8], align 16
  call void @llvm.lifetime.start.p0(i64 1024, ptr nonnull %2) #25
  %3 = tail call ptr @__errno_location() #28
  %4 = load i32, ptr %3, align 4, !tbaa !35
  %5 = tail call ptr @strerror(i32 noundef %4) #25
  %6 = call ptr @strncpy(ptr noundef nonnull dereferenceable(1) %2, ptr noundef nonnull dereferenceable(1) %5, i64 noundef 1024) #25
  %7 = getelementptr inbounds nuw i8, ptr %2, i64 1023
  store i8 0, ptr %7, align 1, !tbaa !54
  %8 = call i64 @strlen(ptr noundef nonnull dereferenceable(1) %2) #26
  %9 = call i64 @write(i32 noundef %0, ptr noundef nonnull %2, i64 noundef %8) #25
  call void @_exit(i32 noundef 1) #29
  unreachable
}